; Function Attrs: mustprogress uwtable
define noundef ptr @_ZN3gmx12AtomsBuilder12symtabStringEPPc(ptr noundef nonnull readonly align 8 captures(none) dereferenceable(32) %0, ptr noundef readonly %1) local_unnamed_addr #2 align 2 {
  %3 = getelementptr inbounds nuw i8, ptr %0, i64 8
  %4 = load ptr, ptr %3, align 8, !tbaa !12
  %.not = icmp eq ptr %4, null
  br i1 %.not, label %8, label %5

5:                                                ; preds = %2
  %6 = load ptr, ptr %1, align 8, !tbaa !31
  %7 = tail call noundef ptr @_Z10put_symtabP8t_symtabPKc(ptr noundef nonnull %4, ptr noundef %6)
  br label %8

8:                                                ; preds = %2, %5
  %.0 = phi ptr [ %7, %5 ], [ %1, %2 ]
  ret ptr %.0
}